; Function Attrs: mustprogress uwtable
define void @_ZN7Imf_3_219TiledRgbaOutputFileC2EPKciiiiNS_9LevelModeENS_17LevelRoundingModeENS_12RgbaChannelsEfN9Imath_3_24Vec2IfEEfNS_9LineOrderENS_11CompressionEi(ptr nocapture noundef nonnull writeonly align 8 dereferenceable(24) %this, ptr noundef %name, i32 noundef %width, i32 noundef %height, i32 noundef %tileXSize, i32 noundef %tileYSize, i32 noundef %mode, i32 noundef %rmode, i32 noundef %rgbaChannels, float noundef %pixelAspectRatio, ptr noundef nonnull %screenWindowCenter, float noundef %screenWindowWidth, i32 noundef %lineOrder, i32 noundef %compression, i32 noundef %numThreads) unnamed_addr #3 align 2 personality ptr @__gxx_personality_v0 {
entry:
  %hd = alloca %"class.Imf_3_2::Header", align 8
  %ref.tmp = alloca %"class.Imf_3_2::TileDescription", align 4
  store ptr getelementptr inbounds ({ [4 x ptr] }, ptr @_ZTVN7Imf_3_219TiledRgbaOutputFileE, i64 0, i32 0, i64 2), ptr %this, align 8
  %_outputFile = getelementptr inbounds i8, ptr %this, i64 8
  %_toYa = getelementptr inbounds i8, ptr %this, i64 16
  tail call void @llvm.memset.p0.i64(ptr noundef nonnull align 8 dereferenceable(16) %_outputFile, i8 0, i64 16, i1 false)
  call void @_ZN7Imf_3_26HeaderC1EiifRKN9Imath_3_24Vec2IfEEfNS_9LineOrderENS_11CompressionE(ptr noundef nonnull align 8 dereferenceable(49) %hd, i32 noundef %width, i32 noundef %height, float noundef %pixelAspectRatio, ptr noundef nonnull align 4 dereferenceable(8) %screenWindowCenter, float noundef %screenWindowWidth, i32 noundef %lineOrder, i32 noundef %compression)
  invoke fastcc void @_ZN7Imf_3_212_GLOBAL__N_114insertChannelsERNS_6HeaderENS_12RgbaChannelsEPKc(ptr noundef nonnull align 8 dereferenceable(49) %hd, i32 noundef %rgbaChannels, ptr noundef %name)
          to label %invoke.cont unwind label %lpad

invoke.cont:                                      ; preds = %entry
  store i32 %tileXSize, ptr %ref.tmp, align 4
  %ySize.i = getelementptr inbounds i8, ptr %ref.tmp, i64 4
  store i32 %tileYSize, ptr %ySize.i, align 4
  %mode.i = getelementptr inbounds i8, ptr %ref.tmp, i64 8
  store i32 %mode, ptr %mode.i, align 4
  %roundingMode.i = getelementptr inbounds i8, ptr %ref.tmp, i64 12
  store i32 %rmode, ptr %roundingMode.i, align 4
  invoke void @_ZN7Imf_3_26Header18setTileDescriptionERKNS_15TileDescriptionE(ptr noundef nonnull align 8 dereferenceable(49) %hd, ptr noundef nonnull align 4 dereferenceable(16) %ref.tmp)
          to label %invoke.cont3 unwind label %lpad

invoke.cont3:                                     ; preds = %invoke.cont
  %call = invoke noalias noundef nonnull dereferenceable(32) ptr @_Znwm(i64 noundef 32) #13
          to label %invoke.cont4 unwind label %lpad

invoke.cont4:                                     ; preds = %invoke.cont3
  invoke void @_ZN7Imf_3_215TiledOutputFileC1EPKcRKNS_6HeaderEi(ptr noundef nonnull align 8 dereferenceable(25) %call, ptr noundef %name, ptr noundef nonnull align 8 dereferenceable(49) %hd, i32 noundef %numThreads)
          to label %invoke.cont6 unwind label %lpad5

invoke.cont6:                                     ; preds = %invoke.cont4
  store ptr %call, ptr %_outputFile, align 8
  %and = and i32 %rgbaChannels, 16
  %tobool.not = icmp eq i32 %and, 0
  br i1 %tobool.not, label %if.end, label %if.then

if.then:                                          ; preds = %invoke.cont6
  %call9 = invoke noalias noundef nonnull dereferenceable(80) ptr @_Znwm(i64 noundef 80) #13
          to label %invoke.cont8 unwind label %lpad

invoke.cont8:                                     ; preds = %if.then
  invoke void @_ZN7Imf_3_219TiledRgbaOutputFile4ToYaC2ERNS_15TiledOutputFileENS_12RgbaChannelsE(ptr noundef nonnull align 8 dereferenceable(80) %call9, ptr noundef nonnull align 8 dereferenceable(25) %call, i32 noundef %rgbaChannels)
          to label %invoke.cont12 unwind label %lpad11

invoke.cont12:                                    ; preds = %invoke.cont8
  store ptr %call9, ptr %_toYa, align 8
  br label %if.end

lpad:                                             ; preds = %if.then, %invoke.cont3, %invoke.cont, %entry
  %0 = landingpad { ptr, i32 }
          cleanup
  br label %ehcleanup

lpad5:                                            ; preds = %invoke.cont4
  %1 = landingpad { ptr, i32 }
          cleanup
  call void @_ZdlPv(ptr noundef nonnull %call) #14
  br label %ehcleanup

lpad11:                                           ; preds = %invoke.cont8
  %2 = landingpad { ptr, i32 }
          cleanup
  call void @_ZdlPv(ptr noundef nonnull %call9) #14
  br label %ehcleanup

if.end:                                           ; preds = %invoke.cont12, %invoke.cont6
  call void @_ZN7Imf_3_26HeaderD1Ev(ptr noundef nonnull align 8 dereferenceable(49) %hd) #15
  ret void

ehcleanup:                                        ; preds = %lpad11, %lpad5, %lpad
  %.pn = phi { ptr, i32 } [ %2, %lpad11 ], [ %0, %lpad ], [ %1, %lpad5 ]
  call void @_ZN7Imf_3_26HeaderD1Ev(ptr noundef nonnull align 8 dereferenceable(49) %hd) #15
  resume { ptr, i32 } %.pn
}